; Function Attrs: nounwind uwtable
define dso_local range(i32 -1, 1) i32 @_PyMonitoring_FireCallEvent(ptr noundef captures(none) %0, ptr noundef %1, i32 noundef %2, ptr noundef %3, ptr noundef %4) local_unnamed_addr #2 {
  %6 = alloca [5 x ptr], align 16
  call void @llvm.lifetime.start.p0(i64 40, ptr nonnull %6) #11
  %7 = getelementptr inbounds nuw i8, ptr %6, i64 8
  %8 = getelementptr inbounds nuw i8, ptr %6, i64 16
  %9 = getelementptr inbounds nuw i8, ptr %6, i64 24
  store i64 0, ptr %6, align 16
  store ptr %3, ptr %9, align 8, !tbaa !46
  %10 = getelementptr inbounds nuw i8, ptr %6, i64 32
  store ptr %4, ptr %10, align 16, !tbaa !46
  %11 = tail call align 8 ptr @llvm.threadlocal.address.p0(ptr align 8 @_Py_tss_tstate)
  %12 = load ptr, ptr %11, align 8, !tbaa !76
  %13 = getelementptr inbounds nuw i8, ptr %12, i64 16
  %14 = load ptr, ptr %13, align 8, !tbaa !47
  %15 = load i8, ptr %0, align 1, !tbaa !188
  store ptr %1, ptr %7, align 8, !tbaa !46
  %16 = icmp slt i32 %2, 0
  br i1 %16, label %17, label %19

17:                                               ; preds = %5
  %18 = load ptr, ptr @PyExc_ValueError, align 8, !tbaa !46
  tail call void @PyErr_SetString(ptr noundef %18, ptr noundef nonnull @.str.55) #11
  br label %capi_call_instrumentation.exit

19:                                               ; preds = %5
  %20 = zext nneg i32 %2 to i64
  %21 = tail call ptr @PyLong_FromLong(i64 noundef %20) #11
  %.not48.i = icmp eq ptr %21, null
  br i1 %.not48.i, label %capi_call_instrumentation.exit, label %22

22:                                               ; preds = %19
  store ptr %21, ptr %8, align 16, !tbaa !46
  %.not4954.i = icmp eq i8 %15, 0
  br i1 %.not4954.i, label %capi_call_instrumentation.exit, label %.lr.ph.split.us.i

.lr.ph.split.us.i:                                ; preds = %22, %Py_DECREF.exit.us.i
  %.03855.us.i = phi i8 [ %38, %Py_DECREF.exit.us.i ], [ %15, %22 ]
  %23 = icmp ugt i8 %.03855.us.i, 15
  br i1 %23, label %29, label %24

24:                                               ; preds = %.lr.ph.split.us.i
  %25 = zext nneg i8 %.03855.us.i to i64
  %26 = getelementptr [16 x i8], ptr @MOST_SIGNIFICANT_BITS, i64 0, i64 %25
  %27 = load i8, ptr %26, align 1, !tbaa !33
  %28 = sext i8 %27 to i32
  br label %most_significant_bit.exit.us.i

29:                                               ; preds = %.lr.ph.split.us.i
  %30 = lshr i8 %.03855.us.i, 4
  %31 = zext nneg i8 %30 to i64
  %32 = getelementptr [16 x i8], ptr @MOST_SIGNIFICANT_BITS, i64 0, i64 %31
  %33 = load i8, ptr %32, align 1, !tbaa !33
  %34 = sext i8 %33 to i32
  %35 = add nsw i32 %34, 4
  br label %most_significant_bit.exit.us.i

most_significant_bit.exit.us.i:                   ; preds = %29, %24
  %.0.i.us.i = phi i32 [ %35, %29 ], [ %28, %24 ]
  %36 = shl nuw i32 1, %.0.i.us.i
  %37 = trunc i32 %36 to i8
  %38 = xor i8 %.03855.us.i, %37
  %39 = trunc i32 %.0.i.us.i to i8
  %40 = call fastcc i32 @call_one_instrument(ptr noundef %14, ptr noundef %12, ptr noundef nonnull %7, i64 noundef -9223372036854775804, i8 noundef signext %39, i32 noundef 4)
  %41 = icmp eq i32 %40, 0
  br i1 %41, label %Py_DECREF.exit.us.i, label %42

42:                                               ; preds = %most_significant_bit.exit.us.i
  %43 = icmp slt i32 %40, 0
  br i1 %43, label %capi_call_instrumentation.exit, label %44

44:                                               ; preds = %42
  %45 = load i8, ptr %0, align 1, !tbaa !188
  %46 = xor i8 %37, -1
  %47 = and i8 %45, %46
  store i8 %47, ptr %0, align 1, !tbaa !188
  br label %Py_DECREF.exit.us.i

Py_DECREF.exit.us.i:                              ; preds = %44, %most_significant_bit.exit.us.i
  %.not49.us.i = icmp eq i8 %.03855.us.i, %37
  br i1 %.not49.us.i, label %capi_call_instrumentation.exit, label %.lr.ph.split.us.i

capi_call_instrumentation.exit:                   ; preds = %42, %Py_DECREF.exit.us.i, %17, %19, %22
  %.0.i = phi i32 [ -1, %17 ], [ -1, %19 ], [ 0, %22 ], [ -1, %42 ], [ 0, %Py_DECREF.exit.us.i ]
  call void @llvm.lifetime.end.p0(i64 40, ptr nonnull %6) #11
  ret i32 %.0.i
}